; Function Attrs: mustprogress uwtable
define hidden noundef zeroext i1 @_ZN7nanogui7TextBox24keyboard_character_eventEj(ptr noundef nonnull align 8 dereferenceable(440) %0, i32 noundef %1) unnamed_addr #3 align 2 personality ptr @__gxx_personality_v0 {
  %3 = alloca %"class.std::__cxx11::basic_ostringstream", align 8
  %4 = alloca %"class.std::__cxx11::basic_string", align 8
  %5 = getelementptr inbounds i8, ptr %0, i64 140
  %6 = load i8, ptr %5, align 4
  %7 = and i8 %6, 1
  %.not = icmp eq i8 %7, 0
  br i1 %.not, label %58, label %8

8:                                                ; preds = %2
  %9 = getelementptr inbounds i8, ptr %0, i64 90
  %10 = load i8, ptr %9, align 2
  %11 = and i8 %10, 1
  %.not8 = icmp eq i8 %11, 0
  br i1 %.not8, label %58, label %12

12:                                               ; preds = %8
  call void @_ZNSt7__cxx1119basic_ostringstreamIcSt11char_traitsIcESaIcEEC1Ev(ptr noundef nonnull align 8 dereferenceable(112) %3)
  %13 = trunc i32 %1 to i8
  %14 = invoke noundef nonnull align 8 dereferenceable(8) ptr @_ZStlsISt11char_traitsIcEERSt13basic_ostreamIcT_ES5_c(ptr noundef nonnull align 8 dereferenceable(8) %3, i8 noundef signext %13)
          to label %15 unwind label %53

15:                                               ; preds = %12
  %16 = getelementptr inbounds i8, ptr %0, i64 396
  %17 = load i32, ptr %16, align 4
  %18 = icmp sgt i32 %17, -1
  %19 = getelementptr inbounds i8, ptr %0, i64 392
  %20 = load i32, ptr %19, align 8
  br i1 %18, label %21, label %_ZN7nanogui7TextBox16delete_selectionEv.exit

21:                                               ; preds = %15
  %spec.select.i = call i32 @llvm.smax.i32(i32 %20, i32 %17)
  %spec.select19.i = call i32 @llvm.smin.i32(i32 %20, i32 %17)
  %22 = add nsw i32 %spec.select.i, -1
  %23 = icmp eq i32 %spec.select19.i, %22
  %24 = getelementptr inbounds i8, ptr %0, i64 328
  %25 = call ptr @_ZNSt7__cxx1112basic_stringIcSt11char_traitsIcESaIcEE5beginEv(ptr noundef nonnull align 8 dereferenceable(32) %24) #27
  %26 = sext i32 %spec.select19.i to i64
  %27 = getelementptr inbounds i8, ptr %25, i64 %26
  br i1 %23, label %28, label %30

28:                                               ; preds = %21
  %29 = invoke ptr @_ZNSt7__cxx1112basic_stringIcSt11char_traitsIcESaIcEE5eraseEN9__gnu_cxx17__normal_iteratorIPKcS4_EE(ptr noundef nonnull align 8 dereferenceable(32) %24, ptr %27)
          to label %.noexc unwind label %53

30:                                               ; preds = %21
  %31 = call ptr @_ZNSt7__cxx1112basic_stringIcSt11char_traitsIcESaIcEE5beginEv(ptr noundef nonnull align 8 dereferenceable(32) %24) #27
  %32 = zext nneg i32 %spec.select.i to i64
  %33 = getelementptr inbounds i8, ptr %31, i64 %32
  %34 = invoke ptr @_ZNSt7__cxx1112basic_stringIcSt11char_traitsIcESaIcEE5eraseEN9__gnu_cxx17__normal_iteratorIPKcS4_EES9_(ptr noundef nonnull align 8 dereferenceable(32) %24, ptr %27, ptr %33)
          to label %.noexc unwind label %53

.noexc:                                           ; preds = %30, %28
  store i32 %spec.select19.i, ptr %19, align 8
  store i32 -1, ptr %16, align 4
  br label %_ZN7nanogui7TextBox16delete_selectionEv.exit

_ZN7nanogui7TextBox16delete_selectionEv.exit:     ; preds = %15, %.noexc
  %35 = phi i32 [ %spec.select19.i, %.noexc ], [ %20, %15 ]
  %36 = getelementptr inbounds i8, ptr %0, i64 328
  %37 = getelementptr inbounds i8, ptr %0, i64 392
  invoke void @_ZNKSt7__cxx1119basic_ostringstreamIcSt11char_traitsIcESaIcEE3strEv(ptr dead_on_unwind nonnull writable sret(%"class.std::__cxx11::basic_string") align 8 %4, ptr noundef nonnull align 8 dereferenceable(112) %3)
          to label %38 unwind label %53

38:                                               ; preds = %_ZN7nanogui7TextBox16delete_selectionEv.exit
  %39 = sext i32 %35 to i64
  %40 = invoke noundef nonnull align 8 dereferenceable(32) ptr @_ZNSt7__cxx1112basic_stringIcSt11char_traitsIcESaIcEE6insertEmRKS4_(ptr noundef nonnull align 8 dereferenceable(32) %36, i64 noundef %39, ptr noundef nonnull align 8 dereferenceable(32) %4)
          to label %41 unwind label %55

41:                                               ; preds = %38
  call void @_ZNSt7__cxx1112basic_stringIcSt11char_traitsIcESaIcEED1Ev(ptr noundef nonnull align 8 dereferenceable(32) %4) #27
  %42 = load i32, ptr %37, align 8
  %43 = add nsw i32 %42, 1
  store i32 %43, ptr %37, align 8
  %44 = call noundef i32 @_ZNKSt7__cxx1112basic_stringIcSt11char_traitsIcESaIcEE7compareEPKc(ptr noundef nonnull align 8 dereferenceable(32) %36, ptr noundef nonnull @.str) #27
  %45 = icmp eq i32 %44, 0
  br i1 %45, label %49, label %46

46:                                               ; preds = %41
  %47 = getelementptr inbounds i8, ptr %0, i64 248
  %48 = invoke noundef zeroext i1 @_ZN7nanogui7TextBox12check_formatERKNSt7__cxx1112basic_stringIcSt11char_traitsIcESaIcEEES8_(ptr nonnull align 8 poison, ptr noundef nonnull align 8 dereferenceable(32) %36, ptr noundef nonnull align 8 dereferenceable(32) %47)
          to label %49 unwind label %53

49:                                               ; preds = %46, %41
  %50 = phi i1 [ true, %41 ], [ %48, %46 ]
  %51 = getelementptr inbounds i8, ptr %0, i64 320
  %52 = zext i1 %50 to i8
  store i8 %52, ptr %51, align 8
  call void @_ZNSt7__cxx1119basic_ostringstreamIcSt11char_traitsIcESaIcEED1Ev(ptr noundef nonnull align 8 dereferenceable(112) %3) #27
  br label %58

53:                                               ; preds = %30, %28, %46, %_ZN7nanogui7TextBox16delete_selectionEv.exit, %12
  %54 = landingpad { ptr, i32 }
          cleanup
  br label %57

55:                                               ; preds = %38
  %56 = landingpad { ptr, i32 }
          cleanup
  call void @_ZNSt7__cxx1112basic_stringIcSt11char_traitsIcESaIcEED1Ev(ptr noundef nonnull align 8 dereferenceable(32) %4) #27
  br label %57

57:                                               ; preds = %55, %53
  %.pn = phi { ptr, i32 } [ %54, %53 ], [ %56, %55 ]
  call void @_ZNSt7__cxx1119basic_ostringstreamIcSt11char_traitsIcESaIcEED1Ev(ptr noundef nonnull align 8 dereferenceable(112) %3) #27
  resume { ptr, i32 } %.pn

58:                                               ; preds = %2, %8, %49
  %.05 = phi i1 [ true, %49 ], [ false, %8 ], [ false, %2 ]
  ret i1 %.05
}